; ModuleID = 'source-C-CXX/52/118.c'
source_filename = "source-C-CXX/52/118.c"
target datalayout = "e-m:e-p270:32:32-p271:32:32-p272:64:64-i64:64-f80:128-n8:16:32:64-S128"
target triple = "x86_64-pc-linux-gnu"

@.str = private unnamed_addr constant [3 x i8] c"%d\00", align 1
@.str.1 = private unnamed_addr constant [4 x i8] c",%d\00", align 1

; Function Attrs: nofree nounwind sspstrong uwtable
define dso_local i32 @main() local_unnamed_addr #0 {
  %1 = alloca i32, align 4
  %2 = alloca [200 x i32], align 16
  %3 = bitcast i32* %1 to i8*
  call void @llvm.lifetime.start.p0i8(i64 4, i8* nonnull %3) #4
  %4 = bitcast [200 x i32]* %2 to i8*
  call void @llvm.lifetime.start.p0i8(i64 800, i8* nonnull %4) #4
  %5 = getelementptr inbounds [200 x i32], [200 x i32]* %2, i64 0, i64 0
  %6 = call i32 (i8*, ...) @__isoc99_scanf(i8* getelementptr inbounds ([3 x i8], [3 x i8]* @.str, i64 0, i64 0), i32* nonnull %1)
  %7 = load i32, i32* %1, align 4, !tbaa !5
  %8 = icmp sgt i32 %7, 0
  br i1 %8, label %9, label %19

9:                                                ; preds = %0, %9
  %10 = phi i64 [ %13, %9 ], [ 0, %0 ]
  %11 = getelementptr inbounds [200 x i32], [200 x i32]* %2, i64 0, i64 %10
  %12 = call i32 (i8*, ...) @__isoc99_scanf(i8* getelementptr inbounds ([3 x i8], [3 x i8]* @.str, i64 0, i64 0), i32* nonnull %11)
  %13 = add nuw nsw i64 %10, 1
  %14 = load i32, i32* %1, align 4, !tbaa !5
  %15 = sext i32 %14 to i64
  %16 = icmp slt i64 %13, %15
  br i1 %16, label %9, label %17, !llvm.loop !9

17:                                               ; preds = %9
  %18 = load i32, i32* %5, align 16, !tbaa !5
  br label %19

19:                                               ; preds = %17, %0
  %20 = phi i32 [ %18, %17 ], [ undef, %0 ]
  %21 = call i32 (i8*, ...) @printf(i8* nonnull dereferenceable(1) getelementptr inbounds ([3 x i8], [3 x i8]* @.str, i64 0, i64 0), i32 %20)
  %22 = load i32, i32* %1, align 4, !tbaa !5
  %23 = icmp sgt i32 %22, 1
  br i1 %23, label %24, label %129

24:                                               ; preds = %19, %123
  %25 = phi i64 [ %128, %123 ], [ 0, %19 ]
  %26 = phi i32 [ %124, %123 ], [ %22, %19 ]
  %27 = phi i64 [ %125, %123 ], [ 1, %19 ]
  %28 = add i64 %25, -7
  %29 = lshr i64 %28, 3
  %30 = add nuw nsw i64 %29, 1
  %31 = add i64 %25, 1
  %32 = getelementptr inbounds [200 x i32], [200 x i32]* %2, i64 0, i64 %27
  %33 = load i32, i32* %32, align 4, !tbaa !5
  %34 = icmp ult i64 %31, 8
  br i1 %34, label %104, label %35

35:                                               ; preds = %24
  %36 = and i64 %31, -8
  %37 = insertelement <4 x i32> poison, i32 %33, i32 0
  %38 = shufflevector <4 x i32> %37, <4 x i32> poison, <4 x i32> zeroinitializer
  %39 = insertelement <4 x i32> poison, i32 %33, i32 0
  %40 = shufflevector <4 x i32> %39, <4 x i32> poison, <4 x i32> zeroinitializer
  %41 = and i64 %30, 1
  %42 = icmp ult i64 %28, 8
  br i1 %42, label %78, label %43

43:                                               ; preds = %35
  %44 = and i64 %30, 4611686018427387902
  br label %45

45:                                               ; preds = %45, %43
  %46 = phi i64 [ 0, %43 ], [ %75, %45 ]
  %47 = phi <4 x i32> [ zeroinitializer, %43 ], [ %73, %45 ]
  %48 = phi <4 x i32> [ zeroinitializer, %43 ], [ %74, %45 ]
  %49 = phi i64 [ %44, %43 ], [ %76, %45 ]
  %50 = getelementptr inbounds [200 x i32], [200 x i32]* %2, i64 0, i64 %46
  %51 = bitcast i32* %50 to <4 x i32>*
  %52 = load <4 x i32>, <4 x i32>* %51, align 16, !tbaa !5
  %53 = getelementptr inbounds i32, i32* %50, i64 4
  %54 = bitcast i32* %53 to <4 x i32>*
  %55 = load <4 x i32>, <4 x i32>* %54, align 16, !tbaa !5
  %56 = icmp eq <4 x i32> %38, %52
  %57 = icmp eq <4 x i32> %40, %55
  %58 = zext <4 x i1> %56 to <4 x i32>
  %59 = zext <4 x i1> %57 to <4 x i32>
  %60 = add <4 x i32> %47, %58
  %61 = add <4 x i32> %48, %59
  %62 = or i64 %46, 8
  %63 = getelementptr inbounds [200 x i32], [200 x i32]* %2, i64 0, i64 %62
  %64 = bitcast i32* %63 to <4 x i32>*
  %65 = load <4 x i32>, <4 x i32>* %64, align 16, !tbaa !5
  %66 = getelementptr inbounds i32, i32* %63, i64 4
  %67 = bitcast i32* %66 to <4 x i32>*
  %68 = load <4 x i32>, <4 x i32>* %67, align 16, !tbaa !5
  %69 = icmp eq <4 x i32> %38, %65
  %70 = icmp eq <4 x i32> %40, %68
  %71 = zext <4 x i1> %69 to <4 x i32>
  %72 = zext <4 x i1> %70 to <4 x i32>
  %73 = add <4 x i32> %60, %71
  %74 = add <4 x i32> %61, %72
  %75 = add nuw i64 %46, 16
  %76 = add i64 %49, -2
  %77 = icmp eq i64 %76, 0
  br i1 %77, label %78, label %45, !llvm.loop !11

78:                                               ; preds = %45, %35
  %79 = phi <4 x i32> [ undef, %35 ], [ %73, %45 ]
  %80 = phi <4 x i32> [ undef, %35 ], [ %74, %45 ]
  %81 = phi i64 [ 0, %35 ], [ %75, %45 ]
  %82 = phi <4 x i32> [ zeroinitializer, %35 ], [ %73, %45 ]
  %83 = phi <4 x i32> [ zeroinitializer, %35 ], [ %74, %45 ]
  %84 = icmp eq i64 %41, 0
  br i1 %84, label %98, label %85

85:                                               ; preds = %78
  %86 = getelementptr inbounds [200 x i32], [200 x i32]* %2, i64 0, i64 %81
  %87 = getelementptr inbounds i32, i32* %86, i64 4
  %88 = bitcast i32* %87 to <4 x i32>*
  %89 = load <4 x i32>, <4 x i32>* %88, align 16, !tbaa !5
  %90 = icmp eq <4 x i32> %40, %89
  %91 = zext <4 x i1> %90 to <4 x i32>
  %92 = add <4 x i32> %83, %91
  %93 = bitcast i32* %86 to <4 x i32>*
  %94 = load <4 x i32>, <4 x i32>* %93, align 16, !tbaa !5
  %95 = icmp eq <4 x i32> %38, %94
  %96 = zext <4 x i1> %95 to <4 x i32>
  %97 = add <4 x i32> %82, %96
  br label %98

98:                                               ; preds = %78, %85
  %99 = phi <4 x i32> [ %79, %78 ], [ %97, %85 ]
  %100 = phi <4 x i32> [ %80, %78 ], [ %92, %85 ]
  %101 = add <4 x i32> %100, %99
  %102 = call i32 @llvm.vector.reduce.add.v4i32(<4 x i32> %101)
  %103 = icmp eq i64 %31, %36
  br i1 %103, label %117, label %104

104:                                              ; preds = %24, %98
  %105 = phi i64 [ 0, %24 ], [ %36, %98 ]
  %106 = phi i32 [ 0, %24 ], [ %102, %98 ]
  br label %107

107:                                              ; preds = %104, %107
  %108 = phi i64 [ %115, %107 ], [ %105, %104 ]
  %109 = phi i32 [ %114, %107 ], [ %106, %104 ]
  %110 = getelementptr inbounds [200 x i32], [200 x i32]* %2, i64 0, i64 %108
  %111 = load i32, i32* %110, align 4, !tbaa !5
  %112 = icmp eq i32 %33, %111
  %113 = zext i1 %112 to i32
  %114 = add nuw nsw i32 %109, %113
  %115 = add nuw nsw i64 %108, 1
  %116 = icmp eq i64 %115, %27
  br i1 %116, label %117, label %107, !llvm.loop !13

117:                                              ; preds = %107, %98
  %118 = phi i32 [ %102, %98 ], [ %114, %107 ]
  %119 = icmp eq i32 %118, 0
  br i1 %119, label %120, label %123

120:                                              ; preds = %117
  %121 = call i32 (i8*, ...) @printf(i8* nonnull dereferenceable(1) getelementptr inbounds ([4 x i8], [4 x i8]* @.str.1, i64 0, i64 0), i32 %33)
  %122 = load i32, i32* %1, align 4, !tbaa !5
  br label %123

123:                                              ; preds = %117, %120
  %124 = phi i32 [ %26, %117 ], [ %122, %120 ]
  %125 = add nuw nsw i64 %27, 1
  %126 = sext i32 %124 to i64
  %127 = icmp slt i64 %125, %126
  %128 = add i64 %25, 1
  br i1 %127, label %24, label %129, !llvm.loop !15

129:                                              ; preds = %123, %19
  call void @llvm.lifetime.end.p0i8(i64 800, i8* nonnull %4) #4
  call void @llvm.lifetime.end.p0i8(i64 4, i8* nonnull %3) #4
  ret i32 0
}

; Function Attrs: argmemonly mustprogress nofree nosync nounwind willreturn
declare void @llvm.lifetime.start.p0i8(i64 immarg, i8* nocapture) #1

; Function Attrs: nofree nounwind
declare noundef i32 @__isoc99_scanf(i8* nocapture noundef readonly, ...) local_unnamed_addr #2

; Function Attrs: nofree nounwind
declare noundef i32 @printf(i8* nocapture noundef readonly, ...) local_unnamed_addr #2

; Function Attrs: argmemonly mustprogress nofree nosync nounwind willreturn
declare void @llvm.lifetime.end.p0i8(i64 immarg, i8* nocapture) #1

; Function Attrs: nofree nosync nounwind readnone willreturn
declare i32 @llvm.vector.reduce.add.v4i32(<4 x i32>) #3


!llvm.module.flags = !{!0, !1, !2, !3}
!llvm.ident = !{!4}

!0 = !{i32 1, !"wchar_size", i32 4}
!1 = !{i32 7, !"PIC Level", i32 2}
!2 = !{i32 7, !"PIE Level", i32 2}
!3 = !{i32 7, !"uwtable", i32 1}
!4 = !{!"clang version 13.0.0"}
!5 = !{!6, !6, i64 0}
!6 = !{!"int", !7, i64 0}
!7 = !{!"omnipotent char", !8, i64 0}
!8 = !{!"Simple C/C++ TBAA"}
!9 = distinct !{!9, !10}
!10 = !{!"llvm.loop.mustprogress"}
!11 = distinct !{!11, !10, !12}
!12 = !{!"llvm.loop.isvectorized", i32 1}
!13 = distinct !{!13, !10, !14, !12}
!14 = !{!"llvm.loop.unroll.runtime.disable"}
!15 = distinct !{!15, !10}
